target datalayout = "e-m:e-p270:32:32-p271:32:32-p272:64:64-i64:64-i128:128-f80:128-n8:16:32:64-S128"
target triple = "x86_64-pc-linux-gnu"

%struct.H5FD_sec2_t = type { %struct.H5FD_t, i32, i64, i64, i8, [1024 x i8], i64, i64, i8 }
%struct.H5FD_t = type { i64, ptr, i64, i32, i64, i64, i64, i64, i64, i8 }

@.str.4 = private unnamed_addr constant [102 x i8] c"generated/home/dtcxzyw/WorkSpace/Projects/compilers/llvm-opt-benchmark/bench/hdf5/hdf5/src/H5FDsec2.c\00", align 1
@.str.12 = private unnamed_addr constant [37 x i8] c"%s, errno = %d, error message = '%s'\00", align 1
@H5E_VFL_g = external global i64, align 8
@__func__.H5FD__sec2_unlock = private unnamed_addr constant [18 x i8] c"H5FD__sec2_unlock\00", align 1
@H5E_CANTUNLOCKFILE_g = external global i64, align 8
@.str.29 = private unnamed_addr constant [22 x i8] c"unable to unlock file\00", align 1

; Function Attrs: nounwind uwtable
define internal i32 @H5FD__sec2_unlock(ptr noundef %0) #0 {
  %2 = alloca ptr, align 8
  %3 = alloca ptr, align 8
  %4 = alloca i32, align 4
  %5 = alloca i8, align 1
  %6 = alloca i32, align 4
  store ptr %0, ptr %2, align 8
  %7 = load ptr, ptr %2, align 8
  store ptr %7, ptr %3, align 8
  store i32 0, ptr %4, align 4
  store i8 0, ptr %5, align 1
  %8 = load ptr, ptr %3, align 8
  %9 = getelementptr inbounds %struct.H5FD_sec2_t, ptr %8, i32 0, i32 1
  %10 = load i32, ptr %9, align 8
  %11 = call i32 @flock(i32 noundef %10, i32 noundef 8) #6
  %12 = icmp slt i32 %11, 0
  br i1 %12, label %13, label %45

13:                                               ; preds = %1
  %14 = load ptr, ptr %3, align 8
  %15 = getelementptr inbounds %struct.H5FD_sec2_t, ptr %14, i32 0, i32 4
  %16 = load i8, ptr %15, align 8
  %17 = trunc i8 %16 to i1
  br i1 %17, label %18, label %24

18:                                               ; preds = %13
  %19 = call ptr @__errno_location() #8
  %20 = load i32, ptr %19, align 4
  %21 = icmp eq i32 38, %20
  br i1 %21, label %22, label %24

22:                                               ; preds = %18
  %23 = call ptr @__errno_location() #8
  store i32 0, ptr %23, align 4
  br label %44

24:                                               ; preds = %18, %13
  %25 = call ptr @__errno_location() #8
  %26 = load i32, ptr %25, align 4
  store i32 %26, ptr %6, align 4
  br label %27

27:                                               ; preds = %24
  br label %28

28:                                               ; preds = %27
  br label %29

29:                                               ; preds = %28
  %30 = load i64, ptr @H5E_VFL_g, align 8
  %31 = load i64, ptr @H5E_CANTUNLOCKFILE_g, align 8
  %32 = load i32, ptr %6, align 4
  %33 = load i32, ptr %6, align 4
  %34 = call ptr @strerror(i32 noundef %33) #6
  %35 = call i32 (ptr, ptr, i32, i64, i64, ptr, ...) @H5E_printf_stack(ptr noundef @.str.4, ptr noundef @__func__.H5FD__sec2_unlock, i32 noundef 988, i64 noundef %30, i64 noundef %31, ptr noundef @.str.12, ptr noundef @.str.29, i32 noundef %32, ptr noundef %34)
  br label %36

36:                                               ; preds = %29
  store i8 1, ptr %5, align 1
  %37 = load i8, ptr %5, align 1
  %38 = trunc i8 %37 to i1
  %39 = zext i1 %38 to i8
  store i8 %39, ptr %5, align 1
  br label %40

40:                                               ; preds = %36
  br label %41

41:                                               ; preds = %40
  store i32 -1, ptr %4, align 4
  br label %46

42:                                               ; No predecessors!
  br label %43

43:                                               ; preds = %42
  br label %44

44:                                               ; preds = %43, %22
  br label %45

45:                                               ; preds = %44, %1
  br label %46

46:                                               ; preds = %45, %41
  %47 = load i32, ptr %4, align 4
  ret i32 %47
}