; Function Attrs: nounwind uwtable
define internal range(i32 -1, 1) i32 @H5FD__sec2_unlock(ptr nocapture noundef readonly %0) #0 {
  %2 = getelementptr inbounds i8, ptr %0, i64 80
  %3 = load i32, ptr %2, align 8
  %4 = tail call i32 @flock(i32 noundef %3, i32 noundef 8) #15
  %5 = icmp slt i32 %4, 0
  br i1 %5, label %6, label %20

6:                                                ; preds = %1
  %7 = getelementptr inbounds i8, ptr %0, i64 104
  %8 = load i8, ptr %7, align 8
  %9 = trunc i8 %8 to i1
  %10 = tail call ptr @__errno_location() #17
  br i1 %9, label %11, label %._crit_edge

11:                                               ; preds = %6
  %12 = load i32, ptr %10, align 4
  %13 = icmp eq i32 %12, 38
  br i1 %13, label %14, label %._crit_edge

14:                                               ; preds = %11
  store i32 0, ptr %10, align 4
  br label %20

._crit_edge:                                      ; preds = %6, %11
  %15 = load i32, ptr %10, align 4
  %16 = load i64, ptr @H5E_VFL_g, align 8
  %17 = load i64, ptr @H5E_CANTUNLOCKFILE_g, align 8
  %18 = tail call ptr @strerror(i32 noundef %15) #15
  %19 = tail call i32 (ptr, ptr, i32, i64, i64, ptr, ...) @H5E_printf_stack(ptr noundef nonnull @.str.4, ptr noundef nonnull @__func__.H5FD__sec2_unlock, i32 noundef 988, i64 noundef %16, i64 noundef %17, ptr noundef nonnull @.str.12, ptr noundef nonnull @.str.29, i32 noundef %15, ptr noundef %18) #15
  br label %20

20:                                               ; preds = %1, %14, %._crit_edge
  %.0 = phi i32 [ 0, %14 ], [ -1, %._crit_edge ], [ 0, %1 ]
  ret i32 %.0
}